target datalayout = "e-m:e-p270:32:32-p271:32:32-p272:64:64-i64:64-i128:128-f80:128-n8:16:32:64-S128"
target triple = "x86_64-pc-linux-gnu"

%struct.pmix_mca_base_framework_t = type { ptr, ptr, ptr, ptr, ptr, ptr, i32, i32, ptr, ptr, i32, i32, %struct.pmix_list_t, %struct.pmix_list_t }
%struct.pmix_list_t = type { %struct.pmix_object_t, %struct.pmix_list_item_t, i64 }
%struct.pmix_object_t = type { %union.pthread_mutex_t, ptr, i32, %struct.pmix_tma }
%union.pthread_mutex_t = type { %struct.__pthread_mutex_s }
%struct.__pthread_mutex_s = type { i32, i32, i32, i32, i32, i16, i16, %struct.__pthread_internal_list }
%struct.__pthread_internal_list = type { ptr, ptr }
%struct.pmix_tma = type { ptr, ptr, ptr, ptr, ptr, ptr, ptr, ptr }
%struct.pmix_list_item_t = type { %struct.pmix_object_t, ptr, ptr, i32 }
%struct.pmix_output_desc_t = type { i8, i8, i32, i8, i32, ptr, ptr, i32, ptr, i32, i8, i8, i8, i8, ptr, i32, i32 }
%struct.pmix_class_t = type { ptr, ptr, ptr, ptr, i32, i32, ptr, ptr, i64 }
%struct.pmix_bfrop_type_info_t = type { %struct.pmix_object_t, i16, ptr, ptr, ptr, ptr, ptr }
%struct.pmix_pointer_array_t = type { %struct.pmix_object_t, i32, i32, i32, i32, i32, ptr, ptr }
%struct.pmix_kval_t = type { %struct.pmix_list_item_t, ptr, ptr }

@pmix_bfrops_base_framework = external global %struct.pmix_mca_base_framework_t, align 8
@pmix_output_info = external global [0 x %struct.pmix_output_desc_t], align 8
@pmix_class_init_epoch = external global i32, align 4
@.str.25 = private unnamed_addr constant [28 x i8] c"pmix_bfrop_unpack: %d kvals\00", align 1
@pmix_kval_t_class = external global %struct.pmix_class_t, align 8

; Function Attrs: inlinehint nounwind uwtable
define internal ptr @pmix_pointer_array_get_item(ptr noundef %0, i32 noundef %1) #3 {
  %3 = alloca ptr, align 8
  %4 = alloca ptr, align 8
  %5 = alloca i32, align 4
  %6 = alloca ptr, align 8
  %7 = alloca i32, align 4
  store ptr %0, ptr %4, align 8, !tbaa !3
  store i32 %1, ptr %5, align 4, !tbaa !13
  call void @llvm.lifetime.start.p0(i64 8, ptr %6) #11
  %8 = load i32, ptr %5, align 4, !tbaa !13
  %9 = icmp sgt i32 0, %8
  br i1 %9, label %16, label %10

10:                                               ; preds = %2
  %11 = load ptr, ptr %4, align 8, !tbaa !3
  %12 = getelementptr inbounds nuw %struct.pmix_pointer_array_t, ptr %11, i32 0, i32 3
  %13 = load i32, ptr %12, align 8, !tbaa !33
  %14 = load i32, ptr %5, align 4, !tbaa !13
  %15 = icmp sle i32 %13, %14
  br label %16

16:                                               ; preds = %10, %2
  %17 = phi i1 [ true, %2 ], [ %15, %10 ]
  %18 = xor i1 %17, true
  %19 = xor i1 %18, true
  %20 = zext i1 %19 to i32
  %21 = sext i32 %20 to i64
  %22 = call i64 @llvm.expect.i64(i64 %21, i64 0)
  %23 = icmp ne i64 %22, 0
  br i1 %23, label %24, label %25

24:                                               ; preds = %16
  store ptr null, ptr %3, align 8
  store i32 1, ptr %7, align 4
  br label %34

25:                                               ; preds = %16
  %26 = load ptr, ptr %4, align 8, !tbaa !3
  %27 = getelementptr inbounds nuw %struct.pmix_pointer_array_t, ptr %26, i32 0, i32 7
  %28 = load ptr, ptr %27, align 8, !tbaa !36
  %29 = load i32, ptr %5, align 4, !tbaa !13
  %30 = sext i32 %29 to i64
  %31 = getelementptr inbounds ptr, ptr %28, i64 %30
  %32 = load ptr, ptr %31, align 8, !tbaa !8
  store ptr %32, ptr %6, align 8, !tbaa !8
  %33 = load ptr, ptr %6, align 8, !tbaa !8
  store ptr %33, ptr %3, align 8
  store i32 1, ptr %7, align 4
  br label %34

34:                                               ; preds = %25, %24
  call void @llvm.lifetime.end.p0(i64 8, ptr %6) #11
  %35 = load ptr, ptr %3, align 8
  ret ptr %35
}

; Function Attrs: inlinehint nounwind uwtable
define internal void @pmix_obj_run_constructors(ptr noundef %0) #3 {
  %2 = alloca ptr, align 8
  %3 = alloca ptr, align 8
  store ptr %0, ptr %2, align 8, !tbaa !122
  call void @llvm.lifetime.start.p0(i64 8, ptr %3) #11
  %4 = load ptr, ptr %2, align 8, !tbaa !122
  %5 = getelementptr inbounds nuw %struct.pmix_object_t, ptr %4, i32 0, i32 1
  %6 = load ptr, ptr %5, align 8, !tbaa !115
  %7 = getelementptr inbounds nuw %struct.pmix_class_t, ptr %6, i32 0, i32 6
  %8 = load ptr, ptr %7, align 8, !tbaa !135
  store ptr %8, ptr %3, align 8, !tbaa !8
  br label %9

9:                                                ; preds = %13, %1
  %10 = load ptr, ptr %3, align 8, !tbaa !8
  %11 = load ptr, ptr %10, align 8, !tbaa !8
  %12 = icmp ne ptr null, %11
  br i1 %12, label %13, label %19

13:                                               ; preds = %9
  %14 = load ptr, ptr %3, align 8, !tbaa !8
  %15 = load ptr, ptr %14, align 8, !tbaa !8
  %16 = load ptr, ptr %2, align 8, !tbaa !122
  call void %15(ptr noundef %16)
  %17 = load ptr, ptr %3, align 8, !tbaa !8
  %18 = getelementptr inbounds nuw ptr, ptr %17, i32 1
  store ptr %18, ptr %3, align 8, !tbaa !8
  br label %9, !llvm.loop !136

19:                                               ; preds = %9
  call void @llvm.lifetime.end.p0(i64 8, ptr %3) #11
  ret void
}

; Function Attrs: inlinehint nounwind uwtable
define internal void @pmix_obj_construct_tma(ptr noundef %0, ptr noundef %1) #3 {
  %3 = alloca ptr, align 8
  %4 = alloca ptr, align 8
  store ptr %0, ptr %3, align 8, !tbaa !122
  store ptr %1, ptr %4, align 8, !tbaa !124
  %5 = load ptr, ptr %4, align 8, !tbaa !124
  %6 = icmp eq ptr null, %5
  br i1 %6, label %7, label %32

7:                                                ; preds = %2
  %8 = load ptr, ptr %3, align 8, !tbaa !122
  %9 = getelementptr inbounds nuw %struct.pmix_object_t, ptr %8, i32 0, i32 3
  %10 = getelementptr inbounds nuw %struct.pmix_tma, ptr %9, i32 0, i32 0
  store ptr null, ptr %10, align 8, !tbaa !126
  %11 = load ptr, ptr %3, align 8, !tbaa !122
  %12 = getelementptr inbounds nuw %struct.pmix_object_t, ptr %11, i32 0, i32 3
  %13 = getelementptr inbounds nuw %struct.pmix_tma, ptr %12, i32 0, i32 1
  store ptr null, ptr %13, align 8, !tbaa !127
  %14 = load ptr, ptr %3, align 8, !tbaa !122
  %15 = getelementptr inbounds nuw %struct.pmix_object_t, ptr %14, i32 0, i32 3
  %16 = getelementptr inbounds nuw %struct.pmix_tma, ptr %15, i32 0, i32 2
  store ptr null, ptr %16, align 8, !tbaa !128
  %17 = load ptr, ptr %3, align 8, !tbaa !122
  %18 = getelementptr inbounds nuw %struct.pmix_object_t, ptr %17, i32 0, i32 3
  %19 = getelementptr inbounds nuw %struct.pmix_tma, ptr %18, i32 0, i32 3
  store ptr null, ptr %19, align 8, !tbaa !129
  %20 = load ptr, ptr %3, align 8, !tbaa !122
  %21 = getelementptr inbounds nuw %struct.pmix_object_t, ptr %20, i32 0, i32 3
  %22 = getelementptr inbounds nuw %struct.pmix_tma, ptr %21, i32 0, i32 4
  store ptr null, ptr %22, align 8, !tbaa !130
  %23 = load ptr, ptr %3, align 8, !tbaa !122
  %24 = getelementptr inbounds nuw %struct.pmix_object_t, ptr %23, i32 0, i32 3
  %25 = getelementptr inbounds nuw %struct.pmix_tma, ptr %24, i32 0, i32 5
  store ptr null, ptr %25, align 8, !tbaa !131
  %26 = load ptr, ptr %3, align 8, !tbaa !122
  %27 = getelementptr inbounds nuw %struct.pmix_object_t, ptr %26, i32 0, i32 3
  %28 = getelementptr inbounds nuw %struct.pmix_tma, ptr %27, i32 0, i32 6
  store ptr null, ptr %28, align 8, !tbaa !132
  %29 = load ptr, ptr %3, align 8, !tbaa !122
  %30 = getelementptr inbounds nuw %struct.pmix_object_t, ptr %29, i32 0, i32 3
  %31 = getelementptr inbounds nuw %struct.pmix_tma, ptr %30, i32 0, i32 7
  store ptr null, ptr %31, align 8, !tbaa !133
  br label %36

32:                                               ; preds = %2
  %33 = load ptr, ptr %3, align 8, !tbaa !122
  %34 = getelementptr inbounds nuw %struct.pmix_object_t, ptr %33, i32 0, i32 3
  %35 = load ptr, ptr %4, align 8, !tbaa !124
  call void @llvm.memcpy.p0.p0.i64(ptr align 8 %34, ptr align 8 %35, i64 64, i1 false), !tbaa.struct !134
  br label %36

36:                                               ; preds = %32, %7
  ret void
}

; Function Attrs: nounwind uwtable
define i32 @pmix_bfrops_base_unpack_kval(ptr noundef %0, ptr noundef %1, ptr noundef %2, ptr noundef %3, i16 noundef zeroext %4) #0 {
  %6 = alloca i32, align 4
  %7 = alloca ptr, align 8
  %8 = alloca ptr, align 8
  %9 = alloca ptr, align 8
  %10 = alloca ptr, align 8
  %11 = alloca i16, align 2
  %12 = alloca ptr, align 8
  %13 = alloca i32, align 4
  %14 = alloca i32, align 4
  %15 = alloca i32, align 4
  %16 = alloca i32, align 4
  %17 = alloca ptr, align 8
  %18 = alloca i32, align 4
  %19 = alloca ptr, align 8
  store ptr %0, ptr %7, align 8, !tbaa !3
  store ptr %1, ptr %8, align 8, !tbaa !8
  store ptr %2, ptr %9, align 8, !tbaa !8
  store ptr %3, ptr %10, align 8, !tbaa !9
  store i16 %4, ptr %11, align 2, !tbaa !11
  call void @llvm.lifetime.start.p0(i64 8, ptr %12) #11
  call void @llvm.lifetime.start.p0(i64 4, ptr %13) #11
  call void @llvm.lifetime.start.p0(i64 4, ptr %14) #11
  call void @llvm.lifetime.start.p0(i64 4, ptr %15) #11
  call void @llvm.lifetime.start.p0(i64 4, ptr %16) #11
  %20 = load i32, ptr getelementptr inbounds nuw (%struct.pmix_mca_base_framework_t, ptr @pmix_bfrops_base_framework, i32 0, i32 11), align 4, !tbaa !15
  %21 = icmp sge i32 %20, 0
  br i1 %21, label %22, label %36

22:                                               ; preds = %5
  %23 = load i32, ptr getelementptr inbounds nuw (%struct.pmix_mca_base_framework_t, ptr @pmix_bfrops_base_framework, i32 0, i32 11), align 4, !tbaa !15
  %24 = icmp slt i32 %23, 64
  br i1 %24, label %25, label %36

25:                                               ; preds = %22
  %26 = load i32, ptr getelementptr inbounds nuw (%struct.pmix_mca_base_framework_t, ptr @pmix_bfrops_base_framework, i32 0, i32 11), align 4, !tbaa !15
  %27 = sext i32 %26 to i64
  %28 = getelementptr inbounds [0 x %struct.pmix_output_desc_t], ptr @pmix_output_info, i64 0, i64 %27
  %29 = getelementptr inbounds nuw %struct.pmix_output_desc_t, ptr %28, i32 0, i32 2
  %30 = load i32, ptr %29, align 4, !tbaa !26
  %31 = icmp sge i32 %30, 20
  br i1 %31, label %32, label %36

32:                                               ; preds = %25
  %33 = load i32, ptr getelementptr inbounds nuw (%struct.pmix_mca_base_framework_t, ptr @pmix_bfrops_base_framework, i32 0, i32 11), align 4, !tbaa !15
  %34 = load ptr, ptr %10, align 8, !tbaa !9
  %35 = load i32, ptr %34, align 4, !tbaa !13
  call void (i32, ptr, ...) @pmix_output(i32 noundef %33, ptr noundef @.str.25, i32 noundef %35)
  br label %36

36:                                               ; preds = %32, %25, %22, %5
  %37 = load ptr, ptr %9, align 8, !tbaa !8
  store ptr %37, ptr %12, align 8, !tbaa !8
  %38 = load ptr, ptr %10, align 8, !tbaa !9
  %39 = load i32, ptr %38, align 4, !tbaa !13
  store i32 %39, ptr %14, align 4, !tbaa !13
  store i32 0, ptr %13, align 4, !tbaa !13
  br label %40

40:                                               ; preds = %136, %36
  %41 = load i32, ptr %13, align 4, !tbaa !13
  %42 = load i32, ptr %14, align 4, !tbaa !13
  %43 = icmp slt i32 %41, %42
  br i1 %43, label %44, label %139

44:                                               ; preds = %40
  br label %45

45:                                               ; preds = %44
  br label %46

46:                                               ; preds = %45
  br label %47

47:                                               ; preds = %46
  %48 = load i32, ptr @pmix_class_init_epoch, align 4, !tbaa !13
  %49 = load i32, ptr getelementptr inbounds nuw (%struct.pmix_class_t, ptr @pmix_kval_t_class, i32 0, i32 4), align 8, !tbaa !113
  %50 = icmp ne i32 %48, %49
  br i1 %50, label %51, label %52

51:                                               ; preds = %47
  call void @pmix_class_initialize(ptr noundef @pmix_kval_t_class)
  br label %52

52:                                               ; preds = %51, %47
  %53 = load ptr, ptr %12, align 8, !tbaa !8
  %54 = load i32, ptr %13, align 4, !tbaa !13
  %55 = sext i32 %54 to i64
  %56 = getelementptr inbounds %struct.pmix_kval_t, ptr %53, i64 %55
  %57 = getelementptr inbounds nuw %struct.pmix_object_t, ptr %56, i32 0, i32 1
  store ptr @pmix_kval_t_class, ptr %57, align 8, !tbaa !115
  %58 = load ptr, ptr %12, align 8, !tbaa !8
  %59 = load i32, ptr %13, align 4, !tbaa !13
  %60 = sext i32 %59 to i64
  %61 = getelementptr inbounds %struct.pmix_kval_t, ptr %58, i64 %60
  %62 = getelementptr inbounds nuw %struct.pmix_object_t, ptr %61, i32 0, i32 2
  store i32 1, ptr %62, align 8, !tbaa !116
  %63 = load ptr, ptr %12, align 8, !tbaa !8
  %64 = load i32, ptr %13, align 4, !tbaa !13
  %65 = sext i32 %64 to i64
  %66 = getelementptr inbounds %struct.pmix_kval_t, ptr %63, i64 %65
  call void @pmix_obj_construct_tma(ptr noundef %66, ptr noundef null)
  %67 = load ptr, ptr %12, align 8, !tbaa !8
  %68 = load i32, ptr %13, align 4, !tbaa !13
  %69 = sext i32 %68 to i64
  %70 = getelementptr inbounds %struct.pmix_kval_t, ptr %67, i64 %69
  call void @pmix_obj_run_constructors(ptr noundef %70)
  br label %71

71:                                               ; preds = %52
  br label %72

72:                                               ; preds = %71
  br label %73

73:                                               ; preds = %72
  br label %74

74:                                               ; preds = %73
  br label %75

75:                                               ; preds = %74
  br label %76

76:                                               ; preds = %75
  store i32 1, ptr %15, align 4, !tbaa !13
  br label %77

77:                                               ; preds = %76
  call void @llvm.lifetime.start.p0(i64 8, ptr %17) #11
  %78 = load ptr, ptr %7, align 8, !tbaa !3
  %79 = call ptr @pmix_pointer_array_get_item(ptr noundef %78, i32 noundef 3)
  store ptr %79, ptr %17, align 8, !tbaa !8
  %80 = load ptr, ptr %17, align 8, !tbaa !8
  %81 = icmp eq ptr null, %80
  br i1 %81, label %82, label %83

82:                                               ; preds = %77
  store i32 -16, ptr %16, align 4, !tbaa !13
  br label %95

83:                                               ; preds = %77
  %84 = load ptr, ptr %17, align 8, !tbaa !8
  %85 = getelementptr inbounds nuw %struct.pmix_bfrop_type_info_t, ptr %84, i32 0, i32 4
  %86 = load ptr, ptr %85, align 8, !tbaa !31
  %87 = load ptr, ptr %7, align 8, !tbaa !3
  %88 = load ptr, ptr %8, align 8, !tbaa !8
  %89 = load ptr, ptr %12, align 8, !tbaa !8
  %90 = load i32, ptr %13, align 4, !tbaa !13
  %91 = sext i32 %90 to i64
  %92 = getelementptr inbounds %struct.pmix_kval_t, ptr %89, i64 %91
  %93 = getelementptr inbounds nuw %struct.pmix_kval_t, ptr %92, i32 0, i32 1
  %94 = call i32 %86(ptr noundef %87, ptr noundef %88, ptr noundef %93, ptr noundef %15, i16 noundef zeroext 3)
  store i32 %94, ptr %16, align 4, !tbaa !13
  br label %95

95:                                               ; preds = %83, %82
  call void @llvm.lifetime.end.p0(i64 8, ptr %17) #11
  br label %96

96:                                               ; preds = %95
  br label %97

97:                                               ; preds = %96
  %98 = load i32, ptr %16, align 4, !tbaa !13
  %99 = icmp ne i32 0, %98
  br i1 %99, label %100, label %102

100:                                              ; preds = %97
  %101 = load i32, ptr %16, align 4, !tbaa !13
  store i32 %101, ptr %6, align 4
  store i32 1, ptr %18, align 4
  br label %140

102:                                              ; preds = %97
  %103 = call noalias ptr @malloc(i64 noundef 32) #14
  %104 = load ptr, ptr %12, align 8, !tbaa !8
  %105 = load i32, ptr %13, align 4, !tbaa !13
  %106 = sext i32 %105 to i64
  %107 = getelementptr inbounds %struct.pmix_kval_t, ptr %104, i64 %106
  %108 = getelementptr inbounds nuw %struct.pmix_kval_t, ptr %107, i32 0, i32 2
  store ptr %103, ptr %108, align 8, !tbaa !148
  store i32 1, ptr %15, align 4, !tbaa !13
  br label %109

109:                                              ; preds = %102
  call void @llvm.lifetime.start.p0(i64 8, ptr %19) #11
  %110 = load ptr, ptr %7, align 8, !tbaa !3
  %111 = call ptr @pmix_pointer_array_get_item(ptr noundef %110, i32 noundef 21)
  store ptr %111, ptr %19, align 8, !tbaa !8
  %112 = load ptr, ptr %19, align 8, !tbaa !8
  %113 = icmp eq ptr null, %112
  br i1 %113, label %114, label %115

114:                                              ; preds = %109
  store i32 -16, ptr %16, align 4, !tbaa !13
  br label %128

115:                                              ; preds = %109
  %116 = load ptr, ptr %19, align 8, !tbaa !8
  %117 = getelementptr inbounds nuw %struct.pmix_bfrop_type_info_t, ptr %116, i32 0, i32 4
  %118 = load ptr, ptr %117, align 8, !tbaa !31
  %119 = load ptr, ptr %7, align 8, !tbaa !3
  %120 = load ptr, ptr %8, align 8, !tbaa !8
  %121 = load ptr, ptr %12, align 8, !tbaa !8
  %122 = load i32, ptr %13, align 4, !tbaa !13
  %123 = sext i32 %122 to i64
  %124 = getelementptr inbounds %struct.pmix_kval_t, ptr %121, i64 %123
  %125 = getelementptr inbounds nuw %struct.pmix_kval_t, ptr %124, i32 0, i32 2
  %126 = load ptr, ptr %125, align 8, !tbaa !148
  %127 = call i32 %118(ptr noundef %119, ptr noundef %120, ptr noundef %126, ptr noundef %15, i16 noundef zeroext 21)
  store i32 %127, ptr %16, align 4, !tbaa !13
  br label %128

128:                                              ; preds = %115, %114
  call void @llvm.lifetime.end.p0(i64 8, ptr %19) #11
  br label %129

129:                                              ; preds = %128
  br label %130

130:                                              ; preds = %129
  %131 = load i32, ptr %16, align 4, !tbaa !13
  %132 = icmp ne i32 0, %131
  br i1 %132, label %133, label %135

133:                                              ; preds = %130
  %134 = load i32, ptr %16, align 4, !tbaa !13
  store i32 %134, ptr %6, align 4
  store i32 1, ptr %18, align 4
  br label %140

135:                                              ; preds = %130
  br label %136

136:                                              ; preds = %135
  %137 = load i32, ptr %13, align 4, !tbaa !13
  %138 = add nsw i32 %137, 1
  store i32 %138, ptr %13, align 4, !tbaa !13
  br label %40, !llvm.loop !150

139:                                              ; preds = %40
  store i32 0, ptr %6, align 4
  store i32 1, ptr %18, align 4
  br label %140

140:                                              ; preds = %139, %133, %100
  call void @llvm.lifetime.end.p0(i64 4, ptr %16) #11
  call void @llvm.lifetime.end.p0(i64 4, ptr %15) #11
  call void @llvm.lifetime.end.p0(i64 4, ptr %14) #11
  call void @llvm.lifetime.end.p0(i64 4, ptr %13) #11
  call void @llvm.lifetime.end.p0(i64 8, ptr %12) #11
  %141 = load i32, ptr %6, align 4
  ret i32 %141
}