; Function Attrs: nounwind uwtable
define i32 @pmix_bfrops_base_unpack_kval(ptr noundef %0, ptr noundef %1, ptr noundef %2, ptr noundef readonly captures(none) %3, i16 noundef zeroext %4) local_unnamed_addr #0 {
  %6 = alloca i32, align 4
  call void @llvm.lifetime.start.p0(i64 4, ptr nonnull %6) #10
  %7 = load i32, ptr getelementptr inbounds nuw (i8, ptr @pmix_bfrops_base_framework, i64 76), align 4, !tbaa !7
  %or.cond = icmp ult i32 %7, 64
  br i1 %or.cond, label %8, label %15

8:                                                ; preds = %5
  %9 = zext nneg i32 %7 to i64
  %10 = getelementptr inbounds nuw [0 x %struct.pmix_output_desc_t], ptr @pmix_output_info, i64 0, i64 %9, i32 2
  %11 = load i32, ptr %10, align 4, !tbaa !19
  %12 = icmp sgt i32 %11, 19
  br i1 %12, label %13, label %15

13:                                               ; preds = %8
  %14 = load i32, ptr %3, align 4, !tbaa !3
  tail call void (i32, ptr, ...) @pmix_output(i32 noundef %7, ptr noundef nonnull @.str.25, i32 noundef %14) #10
  br label %15

15:                                               ; preds = %13, %8, %5
  %16 = load i32, ptr %3, align 4, !tbaa !3
  %17 = getelementptr inbounds nuw i8, ptr %0, i64 152
  %18 = icmp sgt i32 %16, 0
  br i1 %18, label %.lr.ph, label %.thread

.lr.ph:                                           ; preds = %15
  %19 = getelementptr inbounds nuw i8, ptr %0, i64 128
  %wide.trip.count = zext nneg i32 %16 to i64
  br label %21

20:                                               ; preds = %53
  %indvars.iv.next = add nuw nsw i64 %indvars.iv, 1
  %exitcond.not = icmp eq i64 %indvars.iv.next, %wide.trip.count
  br i1 %exitcond.not, label %.thread, label %21, !llvm.loop !100

21:                                               ; preds = %.lr.ph, %20
  %indvars.iv = phi i64 [ 0, %.lr.ph ], [ %indvars.iv.next, %20 ]
  %22 = load i32, ptr @pmix_class_init_epoch, align 4, !tbaa !3
  %23 = load i32, ptr getelementptr inbounds nuw (i8, ptr @pmix_kval_t_class, i64 32), align 8, !tbaa !80
  %.not = icmp eq i32 %22, %23
  br i1 %.not, label %25, label %24

24:                                               ; preds = %21
  call void @pmix_class_initialize(ptr noundef nonnull @pmix_kval_t_class) #10
  br label %25

25:                                               ; preds = %24, %21
  %26 = getelementptr inbounds nuw %struct.pmix_kval_t, ptr %2, i64 %indvars.iv
  %27 = getelementptr inbounds nuw i8, ptr %26, i64 40
  store ptr @pmix_kval_t_class, ptr %27, align 8, !tbaa !82
  %28 = getelementptr inbounds nuw i8, ptr %26, i64 48
  store i32 1, ptr %28, align 8, !tbaa !83
  %29 = getelementptr inbounds nuw i8, ptr %26, i64 56
  call void @llvm.memset.p0.i64(ptr noundef nonnull align 8 dereferenceable(64) %29, i8 0, i64 64, i1 false)
  %30 = load ptr, ptr getelementptr inbounds nuw (i8, ptr @pmix_kval_t_class, i64 40), align 8, !tbaa !84
  %31 = load ptr, ptr %30, align 8, !tbaa !31
  %.not6.i = icmp eq ptr %31, null
  br i1 %.not6.i, label %pmix_obj_run_constructors.exit, label %.lr.ph.i

.lr.ph.i:                                         ; preds = %25, %.lr.ph.i
  %32 = phi ptr [ %34, %.lr.ph.i ], [ %31, %25 ]
  %.07.i = phi ptr [ %33, %.lr.ph.i ], [ %30, %25 ]
  call void %32(ptr noundef %26) #10
  %33 = getelementptr inbounds nuw i8, ptr %.07.i, i64 8
  %34 = load ptr, ptr %33, align 8, !tbaa !31
  %.not.i = icmp eq ptr %34, null
  br i1 %.not.i, label %pmix_obj_run_constructors.exit, label %.lr.ph.i, !llvm.loop !85

pmix_obj_run_constructors.exit:                   ; preds = %.lr.ph.i, %25
  store i32 1, ptr %6, align 4, !tbaa !3
  %35 = load i32, ptr %19, align 8, !tbaa !26
  %.not.i42 = icmp sgt i32 %35, 3
  br i1 %.not.i42, label %pmix_pointer_array_get_item.exit, label %.thread, !prof !29

pmix_pointer_array_get_item.exit:                 ; preds = %pmix_obj_run_constructors.exit
  %36 = load ptr, ptr %17, align 8, !tbaa !30
  %37 = getelementptr inbounds nuw i8, ptr %36, i64 24
  %38 = load ptr, ptr %37, align 8, !tbaa !31
  %39 = icmp eq ptr %38, null
  br i1 %39, label %.thread, label %40

40:                                               ; preds = %pmix_pointer_array_get_item.exit
  %41 = getelementptr inbounds nuw i8, ptr %38, i64 144
  %42 = load ptr, ptr %41, align 8, !tbaa !32
  %43 = getelementptr inbounds nuw i8, ptr %26, i64 144
  %44 = call i32 %42(ptr noundef nonnull %0, ptr noundef %1, ptr noundef nonnull %43, ptr noundef nonnull %6, i16 noundef zeroext 3) #10
  %.not40 = icmp eq i32 %44, 0
  br i1 %.not40, label %45, label %.thread

45:                                               ; preds = %40
  %46 = call noalias dereferenceable_or_null(32) ptr @malloc(i64 noundef 32) #12
  %47 = getelementptr inbounds nuw i8, ptr %26, i64 152
  store ptr %46, ptr %47, align 8, !tbaa !101
  store i32 1, ptr %6, align 4, !tbaa !3
  %48 = load i32, ptr %19, align 8, !tbaa !26
  %.not.i43 = icmp sgt i32 %48, 21
  br i1 %.not.i43, label %pmix_pointer_array_get_item.exit45, label %.thread, !prof !29

pmix_pointer_array_get_item.exit45:               ; preds = %45
  %49 = load ptr, ptr %17, align 8, !tbaa !30
  %50 = getelementptr inbounds nuw i8, ptr %49, i64 168
  %51 = load ptr, ptr %50, align 8, !tbaa !31
  %52 = icmp eq ptr %51, null
  br i1 %52, label %.thread, label %53

53:                                               ; preds = %pmix_pointer_array_get_item.exit45
  %54 = getelementptr inbounds nuw i8, ptr %51, i64 144
  %55 = load ptr, ptr %54, align 8, !tbaa !32
  %56 = call i32 %55(ptr noundef nonnull %0, ptr noundef %1, ptr noundef %46, ptr noundef nonnull %6, i16 noundef zeroext 21) #10
  %.not41 = icmp eq i32 %56, 0
  br i1 %.not41, label %20, label %.thread

.thread:                                          ; preds = %40, %53, %20, %pmix_pointer_array_get_item.exit, %pmix_obj_run_constructors.exit, %pmix_pointer_array_get_item.exit45, %45, %15
  %.0 = phi i32 [ 0, %15 ], [ -16, %45 ], [ -16, %pmix_pointer_array_get_item.exit45 ], [ -16, %pmix_obj_run_constructors.exit ], [ -16, %pmix_pointer_array_get_item.exit ], [ 0, %20 ], [ %56, %53 ], [ %44, %40 ]
  call void @llvm.lifetime.end.p0(i64 4, ptr nonnull %6) #10
  ret i32 %.0
}